; Listing generated by Microsoft (R) Optimizing Compiler Version 19.16.27034.0 

include listing.inc

INCLUDELIB MSVCRTD
INCLUDELIB OLDNAMES

msvcjmc	SEGMENT
__6BC0FD35_vcruntime_new@h DB 01H
__A73354DD_stdlib@h DB 01H
__188180DA_corecrt_math@h DB 01H
__D23EE329_cstdlib DB 01H
__3736D25A_xtgmath@h DB 01H
__824D367B_cmath DB 01H
__2CC6E67D_corecrt_stdio_config@h DB 01H
__05476D76_corecrt_wstdio@h DB 01H
__A452D4A0_stdio@h DB 01H
__4384A2D9_corecrt_memcpy_s@h DB 01H
__2088847F_corecrt_memory@h DB 01H
__4E51A221_corecrt_wstring@h DB 01H
__2140C079_string@h DB 01H
__5ECFF36E_type_traits DB 01H
__331E732B_malloc@h DB 01H
__9BB4E194_vcruntime_exception@h DB 01H
__7949CB39_exception DB 01H
__41381B41_corecrt_wconio@h DB 01H
__F0CC4AC4_corecrt_wio@h DB 01H
__C0802A2B_corecrt_wtime@h DB 01H
__A40A425D_stat@h DB 01H
__5A74375D_wchar@h DB 01H
__B2D003D7_limits DB 01H
__7E39D651_iosfwd DB 01H
__CDB00636_xutility DB 01H
__C334353D_xatomic0@h DB 01H
__1CE3C767_xmemory0 DB 01H
__F007F164_stdexcept DB 01H
__C42C8B73_vcruntime_typeinfo@h DB 01H
__7B7A869E_ctype@h DB 01H
__A2E616E7_xlocinfo DB 01H
__0E7E0F59_memory DB 01H
__223B5856_xfacet DB 01H
__244BF7CC_xlocale DB 01H
__420D52D3_xcall_once@h DB 01H
__FD5040F3_system_error DB 01H
__9B0361F4_xiosbase DB 01H
__BACC91DB_xlocnum DB 01H
__D1FEDD45_ios DB 01H
__4E69A109_log@cpp DB 01H
__FB7583FD_xstring DB 01H
__548B1832_istream DB 01H
__375B2D08_ostream DB 01H
__F2A749D8_streambuf DB 01H
__E53366A2_utility DB 01H
__122CF1B0_xstddef DB 01H
msvcjmc	ENDS
PUBLIC	?__empty_global_delete@@YAXPEAX@Z		; __empty_global_delete
PUBLIC	?__empty_global_delete@@YAXPEAX_K@Z		; __empty_global_delete
PUBLIC	?log@@YAXPEBD@Z					; log
PUBLIC	??$?6U?$char_traits@D@std@@@std@@YAAEAV?$basic_ostream@DU?$char_traits@D@std@@@0@AEAV10@PEBD@Z ; std::operator<<<std::char_traits<char> >
PUBLIC	??$endl@DU?$char_traits@D@std@@@std@@YAAEAV?$basic_ostream@DU?$char_traits@D@std@@@0@AEAV10@@Z ; std::endl<char,std::char_traits<char> >
PUBLIC	??1_Sentry_base@?$basic_ostream@DU?$char_traits@D@std@@@std@@QEAA@XZ ; std::basic_ostream<char,std::char_traits<char> >::_Sentry_base::~_Sentry_base
PUBLIC	??0sentry@?$basic_ostream@DU?$char_traits@D@std@@@std@@QEAA@AEAV12@@Z ; std::basic_ostream<char,std::char_traits<char> >::sentry::sentry
PUBLIC	??1sentry@?$basic_ostream@DU?$char_traits@D@std@@@std@@QEAA@XZ ; std::basic_ostream<char,std::char_traits<char> >::sentry::~sentry
PUBLIC	__JustMyCode_Default
EXTRN	__std_terminate:PROC
EXTRN	?uncaught_exception@std@@YA_NXZ:PROC		; std::uncaught_exception
EXTRN	__imp_?good@ios_base@std@@QEBA_NXZ:PROC
EXTRN	__imp_?flags@ios_base@std@@QEBAHXZ:PROC
EXTRN	__imp_?width@ios_base@std@@QEBA_JXZ:PROC
EXTRN	__imp_?width@ios_base@std@@QEAA_J_J@Z:PROC
EXTRN	__imp_?sputc@?$basic_streambuf@DU?$char_traits@D@std@@@std@@QEAAHD@Z:PROC
EXTRN	__imp_?sputn@?$basic_streambuf@DU?$char_traits@D@std@@@std@@QEAA_JPEBD_J@Z:PROC
EXTRN	__imp_?setstate@?$basic_ios@DU?$char_traits@D@std@@@std@@QEAAXH_N@Z:PROC
EXTRN	__imp_?tie@?$basic_ios@DU?$char_traits@D@std@@@std@@QEBAPEAV?$basic_ostream@DU?$char_traits@D@std@@@2@XZ:PROC
EXTRN	__imp_?rdbuf@?$basic_ios@DU?$char_traits@D@std@@@std@@QEBAPEAV?$basic_streambuf@DU?$char_traits@D@std@@@2@XZ:PROC
EXTRN	__imp_?fill@?$basic_ios@DU?$char_traits@D@std@@@std@@QEBADXZ:PROC
EXTRN	__imp_?widen@?$basic_ios@DU?$char_traits@D@std@@@std@@QEBADD@Z:PROC
EXTRN	__imp_?_Osfx@?$basic_ostream@DU?$char_traits@D@std@@@std@@QEAAXXZ:PROC
EXTRN	__imp_??6?$basic_ostream@DU?$char_traits@D@std@@@std@@QEAAAEAV01@P6AAEAV01@AEAV01@@Z@Z:PROC
EXTRN	__imp_?put@?$basic_ostream@DU?$char_traits@D@std@@@std@@QEAAAEAV12@D@Z:PROC
EXTRN	__imp_?flush@?$basic_ostream@DU?$char_traits@D@std@@@std@@QEAAAEAV12@XZ:PROC
EXTRN	__CheckForDebuggerJustMyCode:PROC
EXTRN	__CxxFrameHandler3:PROC
EXTRN	__imp_?cout@std@@3V?$basic_ostream@DU?$char_traits@D@std@@@1@A:BYTE
;	COMDAT pdata
pdata	SEGMENT
$pdata$?length@?$char_traits@D@std@@SA_KQEBD@Z DD imagerel $LN6
	DD	imagerel $LN6+53
	DD	imagerel $unwind$?length@?$char_traits@D@std@@SA_KQEBD@Z
pdata	ENDS
;	COMDAT pdata
pdata	SEGMENT
$pdata$?eq_int_type@?$char_traits@D@std@@SA_NAEBH0@Z DD imagerel $LN5
	DD	imagerel $LN5+57
	DD	imagerel $unwind$?eq_int_type@?$char_traits@D@std@@SA_NAEBH0@Z
pdata	ENDS
;	COMDAT pdata
pdata	SEGMENT
$pdata$?eof@?$char_traits@D@std@@SAHXZ DD imagerel $LN5
	DD	imagerel $LN5+36
	DD	imagerel $unwind$?eof@?$char_traits@D@std@@SAHXZ
pdata	ENDS
;	COMDAT pdata
pdata	SEGMENT
$pdata$?log@@YAXPEBD@Z DD imagerel $LN4
	DD	imagerel $LN4+58
	DD	imagerel $unwind$?log@@YAXPEBD@Z
pdata	ENDS
;	COMDAT pdata
pdata	SEGMENT
$pdata$??$?6U?$char_traits@D@std@@@std@@YAAEAV?$basic_ostream@DU?$char_traits@D@std@@@0@AEAV10@PEBD@Z DD imagerel $LN65
	DD	imagerel $LN65+534
	DD	imagerel $unwind$??$?6U?$char_traits@D@std@@@std@@YAAEAV?$basic_ostream@DU?$char_traits@D@std@@@0@AEAV10@PEBD@Z
pdata	ENDS
;	COMDAT pdata
pdata	SEGMENT
$pdata$?catch$8@?0???$?6U?$char_traits@D@std@@@std@@YAAEAV?$basic_ostream@DU?$char_traits@D@std@@@0@AEAV10@PEBD@Z@4HA DD imagerel ?catch$8@?0???$?6U?$char_traits@D@std@@@std@@YAAEAV?$basic_ostream@DU?$char_traits@D@std@@@0@AEAV10@PEBD@Z@4HA
	DD	imagerel ?catch$8@?0???$?6U?$char_traits@D@std@@@std@@YAAEAV?$basic_ostream@DU?$char_traits@D@std@@@0@AEAV10@PEBD@Z@4HA+56
	DD	imagerel $unwind$?catch$8@?0???$?6U?$char_traits@D@std@@@std@@YAAEAV?$basic_ostream@DU?$char_traits@D@std@@@0@AEAV10@PEBD@Z@4HA
pdata	ENDS
;	COMDAT pdata
pdata	SEGMENT
$pdata$??$endl@DU?$char_traits@D@std@@@std@@YAAEAV?$basic_ostream@DU?$char_traits@D@std@@@0@AEAV10@@Z DD imagerel $LN4
	DD	imagerel $LN4+69
	DD	imagerel $unwind$??$endl@DU?$char_traits@D@std@@@std@@YAAEAV?$basic_ostream@DU?$char_traits@D@std@@@0@AEAV10@@Z
pdata	ENDS
;	COMDAT pdata
pdata	SEGMENT
$pdata$??0_Sentry_base@?$basic_ostream@DU?$char_traits@D@std@@@std@@QEAA@AEAV12@@Z DD imagerel $LN6
	DD	imagerel $LN6+94
	DD	imagerel $unwind$??0_Sentry_base@?$basic_ostream@DU?$char_traits@D@std@@@std@@QEAA@AEAV12@@Z
pdata	ENDS
;	COMDAT pdata
pdata	SEGMENT
$pdata$??1_Sentry_base@?$basic_ostream@DU?$char_traits@D@std@@@std@@QEAA@XZ DD imagerel $LN6
	DD	imagerel $LN6+92
	DD	imagerel $unwind$??1_Sentry_base@?$basic_ostream@DU?$char_traits@D@std@@@std@@QEAA@XZ
pdata	ENDS
;	COMDAT pdata
pdata	SEGMENT
$pdata$??0sentry@?$basic_ostream@DU?$char_traits@D@std@@@std@@QEAA@AEAV12@@Z DD imagerel $LN10
	DD	imagerel $LN10+215
	DD	imagerel $unwind$??0sentry@?$basic_ostream@DU?$char_traits@D@std@@@std@@QEAA@AEAV12@@Z
pdata	ENDS
;	COMDAT pdata
pdata	SEGMENT
$pdata$??1sentry@?$basic_ostream@DU?$char_traits@D@std@@@std@@QEAA@XZ DD imagerel $LN11
	DD	imagerel $LN11+112
	DD	imagerel $unwind$??1sentry@?$basic_ostream@DU?$char_traits@D@std@@@std@@QEAA@XZ
pdata	ENDS
;	COMDAT pdata
pdata	SEGMENT
$pdata$??Bsentry@?$basic_ostream@DU?$char_traits@D@std@@@std@@QEBA_NXZ DD imagerel $LN4
	DD	imagerel $LN4+31
	DD	imagerel $unwind$??Bsentry@?$basic_ostream@DU?$char_traits@D@std@@@std@@QEBA_NXZ
pdata	ENDS
;	COMDAT xdata
xdata	SEGMENT
$unwind$??Bsentry@?$basic_ostream@DU?$char_traits@D@std@@@std@@QEBA_NXZ DD 020601H
	DD	030023206H
xdata	ENDS
;	COMDAT xdata
xdata	SEGMENT
$ip2state$??1sentry@?$basic_ostream@DU?$char_traits@D@std@@@std@@QEAA@XZ DD imagerel ??1sentry@?$basic_ostream@DU?$char_traits@D@std@@@std@@QEAA@XZ+25
	DD	0ffffffffH
	DD	imagerel ??1sentry@?$basic_ostream@DU?$char_traits@D@std@@@std@@QEAA@XZ+51
	DD	00H
	DD	imagerel ??1sentry@?$basic_ostream@DU?$char_traits@D@std@@@std@@QEAA@XZ+106
	DD	0ffffffffH
xdata	ENDS
;	COMDAT xdata
xdata	SEGMENT
$stateUnwindMap$??1sentry@?$basic_ostream@DU?$char_traits@D@std@@@std@@QEAA@XZ DD 0ffffffffH
	DD	imagerel __std_terminate
xdata	ENDS
;	COMDAT CONST
CONST	SEGMENT
$cppxdata$??1sentry@?$basic_ostream@DU?$char_traits@D@std@@@std@@QEAA@XZ DD 019930522H
	DD	01H
	DD	imagerel $stateUnwindMap$??1sentry@?$basic_ostream@DU?$char_traits@D@std@@@std@@QEAA@XZ
	DD	00H
	DD	00H
	DD	03H
	DD	imagerel $ip2state$??1sentry@?$basic_ostream@DU?$char_traits@D@std@@@std@@QEAA@XZ
	DD	020H
	DD	00H
	DD	05H
CONST	ENDS
;	COMDAT xdata
xdata	SEGMENT
$unwind$??1sentry@?$basic_ostream@DU?$char_traits@D@std@@@std@@QEAA@XZ DD 020f19H
	DD	030025206H
	DD	imagerel __CxxFrameHandler3
	DD	imagerel $cppxdata$??1sentry@?$basic_ostream@DU?$char_traits@D@std@@@std@@QEAA@XZ
xdata	ENDS
;	COMDAT xdata
xdata	SEGMENT
$ip2state$??0sentry@?$basic_ostream@DU?$char_traits@D@std@@@std@@QEAA@AEAV12@@Z DD imagerel ??0sentry@?$basic_ostream@DU?$char_traits@D@std@@@std@@QEAA@AEAV12@@Z+37
	DD	0ffffffffH
	DD	imagerel ??0sentry@?$basic_ostream@DU?$char_traits@D@std@@@std@@QEAA@AEAV12@@Z+95
	DD	00H
	DD	imagerel ??0sentry@?$basic_ostream@DU?$char_traits@D@std@@@std@@QEAA@AEAV12@@Z+201
	DD	0ffffffffH
xdata	ENDS
;	COMDAT xdata
xdata	SEGMENT
$stateUnwindMap$??0sentry@?$basic_ostream@DU?$char_traits@D@std@@@std@@QEAA@AEAV12@@Z DD 0ffffffffH
	DD	imagerel ?dtor$0@?0???0sentry@?$basic_ostream@DU?$char_traits@D@std@@@std@@QEAA@AEAV12@@Z@4HA
xdata	ENDS
;	COMDAT CONST
CONST	SEGMENT
$cppxdata$??0sentry@?$basic_ostream@DU?$char_traits@D@std@@@std@@QEAA@AEAV12@@Z DD 019930522H
	DD	01H
	DD	imagerel $stateUnwindMap$??0sentry@?$basic_ostream@DU?$char_traits@D@std@@@std@@QEAA@AEAV12@@Z
	DD	00H
	DD	00H
	DD	03H
	DD	imagerel $ip2state$??0sentry@?$basic_ostream@DU?$char_traits@D@std@@@std@@QEAA@AEAV12@@Z
	DD	020H
	DD	00H
	DD	01H
CONST	ENDS
;	COMDAT xdata
xdata	SEGMENT
$unwind$??0sentry@?$basic_ostream@DU?$char_traits@D@std@@@std@@QEAA@AEAV12@@Z DD 041811H
	DD	093418H
	DD	07006520aH
	DD	imagerel __CxxFrameHandler3
	DD	imagerel $cppxdata$??0sentry@?$basic_ostream@DU?$char_traits@D@std@@@std@@QEAA@AEAV12@@Z
xdata	ENDS
;	COMDAT xdata
xdata	SEGMENT
$ip2state$??1_Sentry_base@?$basic_ostream@DU?$char_traits@D@std@@@std@@QEAA@XZ DD imagerel ??1_Sentry_base@?$basic_ostream@DU?$char_traits@D@std@@@std@@QEAA@XZ+25
	DD	0ffffffffH
xdata	ENDS
;	COMDAT CONST
CONST	SEGMENT
$cppxdata$??1_Sentry_base@?$basic_ostream@DU?$char_traits@D@std@@@std@@QEAA@XZ DD 019930522H
	DD	00H
	DD	00H
	DD	00H
	DD	00H
	DD	01H
	DD	imagerel $ip2state$??1_Sentry_base@?$basic_ostream@DU?$char_traits@D@std@@@std@@QEAA@XZ
	DD	020H
	DD	00H
	DD	05H
CONST	ENDS
;	COMDAT xdata
xdata	SEGMENT
$unwind$??1_Sentry_base@?$basic_ostream@DU?$char_traits@D@std@@@std@@QEAA@XZ DD 020f19H
	DD	030025206H
	DD	imagerel __CxxFrameHandler3
	DD	imagerel $cppxdata$??1_Sentry_base@?$basic_ostream@DU?$char_traits@D@std@@@std@@QEAA@XZ
xdata	ENDS
;	COMDAT xdata
xdata	SEGMENT
$unwind$??0_Sentry_base@?$basic_ostream@DU?$char_traits@D@std@@@std@@QEAA@AEAV12@@Z DD 040a01H
	DD	06340aH
	DD	07006320aH
xdata	ENDS
;	COMDAT xdata
xdata	SEGMENT
$unwind$??$endl@DU?$char_traits@D@std@@@std@@YAAEAV?$basic_ostream@DU?$char_traits@D@std@@@0@AEAV10@@Z DD 020601H
	DD	030023206H
xdata	ENDS
;	COMDAT xdata
xdata	SEGMENT
$unwind$?catch$8@?0???$?6U?$char_traits@D@std@@@std@@YAAEAV?$basic_ostream@DU?$char_traits@D@std@@@0@AEAV10@PEBD@Z@4HA DD 020a19H
	DD	05006320aH
	DD	imagerel __CxxFrameHandler3
	DD	imagerel $cppxdata$??$?6U?$char_traits@D@std@@@std@@YAAEAV?$basic_ostream@DU?$char_traits@D@std@@@0@AEAV10@PEBD@Z
xdata	ENDS
;	COMDAT xdata
xdata	SEGMENT
$ip2state$??$?6U?$char_traits@D@std@@@std@@YAAEAV?$basic_ostream@DU?$char_traits@D@std@@@0@AEAV10@PEBD@Z DD imagerel ??$?6U?$char_traits@D@std@@@std@@YAAEAV?$basic_ostream@DU?$char_traits@D@std@@@0@AEAV10@PEBD@Z+44
	DD	0ffffffffH
	DD	imagerel ??$?6U?$char_traits@D@std@@@std@@YAAEAV?$basic_ostream@DU?$char_traits@D@std@@@0@AEAV10@PEBD@Z+157
	DD	00H
	DD	imagerel ??$?6U?$char_traits@D@std@@@std@@YAAEAV?$basic_ostream@DU?$char_traits@D@std@@@0@AEAV10@PEBD@Z+184
	DD	01H
	DD	imagerel ??$?6U?$char_traits@D@std@@@std@@YAAEAV?$basic_ostream@DU?$char_traits@D@std@@@0@AEAV10@PEBD@Z+399
	DD	00H
	DD	imagerel ??$?6U?$char_traits@D@std@@@std@@YAAEAV?$basic_ostream@DU?$char_traits@D@std@@@0@AEAV10@PEBD@Z+435
	DD	03H
	DD	imagerel ??$?6U?$char_traits@D@std@@@std@@YAAEAV?$basic_ostream@DU?$char_traits@D@std@@@0@AEAV10@PEBD@Z+456
	DD	04H
	DD	imagerel ??$?6U?$char_traits@D@std@@@std@@YAAEAV?$basic_ostream@DU?$char_traits@D@std@@@0@AEAV10@PEBD@Z+513
	DD	0ffffffffH
	DD	imagerel ?catch$8@?0???$?6U?$char_traits@D@std@@@std@@YAAEAV?$basic_ostream@DU?$char_traits@D@std@@@0@AEAV10@PEBD@Z@4HA+35
	DD	02H
xdata	ENDS
;	COMDAT xdata
xdata	SEGMENT
$handlerMap$0$??$?6U?$char_traits@D@std@@@std@@YAAEAV?$basic_ostream@DU?$char_traits@D@std@@@0@AEAV10@PEBD@Z DD 040H
	DD	00H
	DD	00H
	DD	imagerel ?catch$8@?0???$?6U?$char_traits@D@std@@@std@@YAAEAV?$basic_ostream@DU?$char_traits@D@std@@@0@AEAV10@PEBD@Z@4HA
	DD	038H
xdata	ENDS
;	COMDAT xdata
xdata	SEGMENT
$tryMap$??$?6U?$char_traits@D@std@@@std@@YAAEAV?$basic_ostream@DU?$char_traits@D@std@@@0@AEAV10@PEBD@Z DD 01H
	DD	01H
	DD	02H
	DD	01H
	DD	imagerel $handlerMap$0$??$?6U?$char_traits@D@std@@@std@@YAAEAV?$basic_ostream@DU?$char_traits@D@std@@@0@AEAV10@PEBD@Z
xdata	ENDS
;	COMDAT xdata
xdata	SEGMENT
$stateUnwindMap$??$?6U?$char_traits@D@std@@@std@@YAAEAV?$basic_ostream@DU?$char_traits@D@std@@@0@AEAV10@PEBD@Z DD 0ffffffffH
	DD	imagerel ?dtor$0@?0???$?6U?$char_traits@D@std@@@std@@YAAEAV?$basic_ostream@DU?$char_traits@D@std@@@0@AEAV10@PEBD@Z@4HA
	DD	00H
	DD	00H
	DD	00H
	DD	00H
	DD	0ffffffffH
	DD	imagerel __std_terminate
	DD	03H
	DD	imagerel __std_terminate
xdata	ENDS
;	COMDAT CONST
CONST	SEGMENT
$cppxdata$??$?6U?$char_traits@D@std@@@std@@YAAEAV?$basic_ostream@DU?$char_traits@D@std@@@0@AEAV10@PEBD@Z DD 019930522H
	DD	05H
	DD	imagerel $stateUnwindMap$??$?6U?$char_traits@D@std@@@std@@YAAEAV?$basic_ostream@DU?$char_traits@D@std@@@0@AEAV10@PEBD@Z
	DD	01H
	DD	imagerel $tryMap$??$?6U?$char_traits@D@std@@@std@@YAAEAV?$basic_ostream@DU?$char_traits@D@std@@@0@AEAV10@PEBD@Z
	DD	08H
	DD	imagerel $ip2state$??$?6U?$char_traits@D@std@@@std@@YAAEAV?$basic_ostream@DU?$char_traits@D@std@@@0@AEAV10@PEBD@Z
	DD	020H
	DD	00H
	DD	01H
CONST	ENDS
;	COMDAT xdata
xdata	SEGMENT
$unwind$??$?6U?$char_traits@D@std@@@std@@YAAEAV?$basic_ostream@DU?$char_traits@D@std@@@0@AEAV10@PEBD@Z DD 081f19H
	DD	0f341fH
	DD	0f00d7211H
	DD	0c009e00bH
	DD	060067007H
	DD	imagerel __CxxFrameHandler3
	DD	imagerel $cppxdata$??$?6U?$char_traits@D@std@@@std@@YAAEAV?$basic_ostream@DU?$char_traits@D@std@@@0@AEAV10@PEBD@Z
xdata	ENDS
;	COMDAT xdata
xdata	SEGMENT
$unwind$?log@@YAXPEBD@Z DD 020601H
	DD	030023206H
xdata	ENDS
;	COMDAT xdata
xdata	SEGMENT
$ip2state$?eof@?$char_traits@D@std@@SAHXZ DD imagerel ?eof@?$char_traits@D@std@@SAHXZ+20
	DD	0ffffffffH
xdata	ENDS
;	COMDAT CONST
CONST	SEGMENT
$cppxdata$?eof@?$char_traits@D@std@@SAHXZ DD 019930522H
	DD	00H
	DD	00H
	DD	00H
	DD	00H
	DD	01H
	DD	imagerel $ip2state$?eof@?$char_traits@D@std@@SAHXZ
	DD	020H
	DD	00H
	DD	05H
CONST	ENDS
;	COMDAT xdata
xdata	SEGMENT
$unwind$?eof@?$char_traits@D@std@@SAHXZ DD 010d19H
	DD	06204H
	DD	imagerel __CxxFrameHandler3
	DD	imagerel $cppxdata$?eof@?$char_traits@D@std@@SAHXZ
xdata	ENDS
;	COMDAT xdata
xdata	SEGMENT
$ip2state$?eq_int_type@?$char_traits@D@std@@SA_NAEBH0@Z DD imagerel ?eq_int_type@?$char_traits@D@std@@SA_NAEBH0@Z+33
	DD	0ffffffffH
xdata	ENDS
;	COMDAT CONST
CONST	SEGMENT
$cppxdata$?eq_int_type@?$char_traits@D@std@@SA_NAEBH0@Z DD 019930522H
	DD	00H
	DD	00H
	DD	00H
	DD	00H
	DD	01H
	DD	imagerel $ip2state$?eq_int_type@?$char_traits@D@std@@SA_NAEBH0@Z
	DD	020H
	DD	00H
	DD	05H
CONST	ENDS
;	COMDAT xdata
xdata	SEGMENT
$unwind$?eq_int_type@?$char_traits@D@std@@SA_NAEBH0@Z DD 041419H
	DD	083414H
	DD	070025206H
	DD	imagerel __CxxFrameHandler3
	DD	imagerel $cppxdata$?eq_int_type@?$char_traits@D@std@@SA_NAEBH0@Z
xdata	ENDS
;	COMDAT xdata
xdata	SEGMENT
$ip2state$?length@?$char_traits@D@std@@SA_KQEBD@Z DD imagerel ?length@?$char_traits@D@std@@SA_KQEBD@Z+25
	DD	0ffffffffH
xdata	ENDS
;	COMDAT CONST
CONST	SEGMENT
$cppxdata$?length@?$char_traits@D@std@@SA_KQEBD@Z DD 019930522H
	DD	00H
	DD	00H
	DD	00H
	DD	00H
	DD	01H
	DD	imagerel $ip2state$?length@?$char_traits@D@std@@SA_KQEBD@Z
	DD	020H
	DD	00H
	DD	05H
CONST	ENDS
;	COMDAT xdata
xdata	SEGMENT
$unwind$?length@?$char_traits@D@std@@SA_KQEBD@Z DD 020f19H
	DD	030025206H
	DD	imagerel __CxxFrameHandler3
	DD	imagerel $cppxdata$?length@?$char_traits@D@std@@SA_KQEBD@Z
xdata	ENDS
; Function compile flags: /Odt
;	COMDAT __JustMyCode_Default
_TEXT	SEGMENT
__JustMyCode_Default PROC				; COMDAT
	ret	0
__JustMyCode_Default ENDP
_TEXT	ENDS
; Function compile flags: /Ogtpy
;	COMDAT ??Bsentry@?$basic_ostream@DU?$char_traits@D@std@@@std@@QEBA_NXZ
_TEXT	SEGMENT
this$ = 48
??Bsentry@?$basic_ostream@DU?$char_traits@D@std@@@std@@QEBA_NXZ PROC ; std::basic_ostream<char,std::char_traits<char> >::sentry::operator bool, COMDAT
; File c:\program files (x86)\microsoft visual studio\2017\community\vc\tools\msvc\14.16.27023\include\ostream
; Line 152
$LN4:
	push	rbx
	sub	rsp, 32					; 00000020H
	mov	rbx, rcx
	lea	rcx, OFFSET FLAT:__375B2D08_ostream
	call	__CheckForDebuggerJustMyCode
	movzx	eax, BYTE PTR [rbx+8]
; Line 154
	add	rsp, 32					; 00000020H
	pop	rbx
	ret	0
??Bsentry@?$basic_ostream@DU?$char_traits@D@std@@@std@@QEBA_NXZ ENDP ; std::basic_ostream<char,std::char_traits<char> >::sentry::operator bool
_TEXT	ENDS
; Function compile flags: /Ogtpy
;	COMDAT ??1sentry@?$basic_ostream@DU?$char_traits@D@std@@@std@@QEAA@XZ
_TEXT	SEGMENT
$T1 = 32
this$ = 64
??1sentry@?$basic_ostream@DU?$char_traits@D@std@@@std@@QEAA@XZ PROC ; std::basic_ostream<char,std::char_traits<char> >::sentry::~sentry, COMDAT
; File c:\program files (x86)\microsoft visual studio\2017\community\vc\tools\msvc\14.16.27023\include\ostream
; Line 135
$LN11:
	push	rbx
	sub	rsp, 48					; 00000030H
	mov	QWORD PTR $T1[rsp], -2
	mov	rbx, rcx
	lea	rcx, OFFSET FLAT:__375B2D08_ostream
	call	__CheckForDebuggerJustMyCode
	npad	1
; Line 137
	call	?uncaught_exception@std@@YA_NXZ		; std::uncaught_exception
	npad	1
	test	al, al
	jne	SHORT $LN2@sentry
; Line 139
	mov	rcx, QWORD PTR [rbx]
	call	QWORD PTR __imp_?_Osfx@?$basic_ostream@DU?$char_traits@D@std@@@std@@QEAAXXZ
	npad	1
$LN2@sentry:
; Line 106
	mov	rdx, QWORD PTR [rbx]
	mov	rax, QWORD PTR [rdx]
	movsxd	rcx, DWORD PTR [rax+4]
	add	rcx, rdx
	call	QWORD PTR __imp_?rdbuf@?$basic_ios@DU?$char_traits@D@std@@@std@@QEBAPEAV?$basic_streambuf@DU?$char_traits@D@std@@@2@XZ
	npad	1
	test	rax, rax
	je	SHORT $LN8@sentry
; Line 107
	mov	rdx, QWORD PTR [rbx]
	mov	rax, QWORD PTR [rdx]
	movsxd	rcx, DWORD PTR [rax+4]
	add	rcx, rdx
	call	QWORD PTR __imp_?rdbuf@?$basic_ios@DU?$char_traits@D@std@@@std@@QEBAPEAV?$basic_streambuf@DU?$char_traits@D@std@@@2@XZ
	npad	1
	mov	rdx, QWORD PTR [rax]
	mov	rcx, rax
	call	QWORD PTR [rdx+16]
	npad	1
$LN8@sentry:
; Line 144
	add	rsp, 48					; 00000030H
	pop	rbx
	ret	0
??1sentry@?$basic_ostream@DU?$char_traits@D@std@@@std@@QEAA@XZ ENDP ; std::basic_ostream<char,std::char_traits<char> >::sentry::~sentry
_TEXT	ENDS
; Function compile flags: /Ogtpy
;	COMDAT ??0sentry@?$basic_ostream@DU?$char_traits@D@std@@@std@@QEAA@AEAV12@@Z
_TEXT	SEGMENT
$T1 = 32
this$ = 64
_Ostr$ = 72
??0sentry@?$basic_ostream@DU?$char_traits@D@std@@@std@@QEAA@AEAV12@@Z PROC ; std::basic_ostream<char,std::char_traits<char> >::sentry::sentry, COMDAT
; File c:\program files (x86)\microsoft visual studio\2017\community\vc\tools\msvc\14.16.27023\include\ostream
; Line 121
$LN10:
	mov	QWORD PTR [rsp+8], rcx
	push	rdi
	sub	rsp, 48					; 00000030H
	mov	QWORD PTR $T1[rsp], -2
	mov	QWORD PTR [rsp+72], rbx
	mov	rbx, rdx
	mov	rdi, rcx
	lea	rcx, OFFSET FLAT:__375B2D08_ostream
	call	__CheckForDebuggerJustMyCode
; Line 98
	mov	QWORD PTR [rdi], rbx
; Line 100
	mov	rax, QWORD PTR [rbx]
	movsxd	rcx, DWORD PTR [rax+4]
	add	rcx, rbx
	call	QWORD PTR __imp_?rdbuf@?$basic_ios@DU?$char_traits@D@std@@@std@@QEBAPEAV?$basic_streambuf@DU?$char_traits@D@std@@@2@XZ
	test	rax, rax
	je	SHORT $LN6@sentry
; Line 101
	mov	rdx, QWORD PTR [rdi]
	mov	rax, QWORD PTR [rdx]
	movsxd	rcx, DWORD PTR [rax+4]
	add	rcx, rdx
	call	QWORD PTR __imp_?rdbuf@?$basic_ios@DU?$char_traits@D@std@@@std@@QEBAPEAV?$basic_streambuf@DU?$char_traits@D@std@@@2@XZ
	mov	rdx, QWORD PTR [rax]
	mov	rcx, rax
	call	QWORD PTR [rdx+8]
	npad	1
$LN6@sentry:
; Line 122
	mov	rax, QWORD PTR [rbx]
	movsxd	rcx, DWORD PTR [rax+4]
	add	rcx, rbx
	call	QWORD PTR __imp_?good@ios_base@std@@QEBA_NXZ
	test	al, al
	je	SHORT $LN2@sentry
	mov	rax, QWORD PTR [rbx]
	movsxd	rcx, DWORD PTR [rax+4]
	add	rcx, rbx
	call	QWORD PTR __imp_?tie@?$basic_ios@DU?$char_traits@D@std@@@std@@QEBAPEAV?$basic_ostream@DU?$char_traits@D@std@@@2@XZ
	test	rax, rax
	je	SHORT $LN2@sentry
	mov	rax, QWORD PTR [rbx]
	movsxd	rcx, DWORD PTR [rax+4]
	add	rcx, rbx
	call	QWORD PTR __imp_?tie@?$basic_ios@DU?$char_traits@D@std@@@std@@QEBAPEAV?$basic_ostream@DU?$char_traits@D@std@@@2@XZ
	cmp	rax, rbx
	je	SHORT $LN2@sentry
; Line 123
	mov	rax, QWORD PTR [rbx]
	movsxd	rcx, DWORD PTR [rax+4]
	add	rcx, rbx
	call	QWORD PTR __imp_?tie@?$basic_ios@DU?$char_traits@D@std@@@std@@QEBAPEAV?$basic_ostream@DU?$char_traits@D@std@@@2@XZ
	mov	rcx, rax
	call	QWORD PTR __imp_?flush@?$basic_ostream@DU?$char_traits@D@std@@@std@@QEAAAEAV12@XZ
$LN2@sentry:
; Line 124
	mov	rax, QWORD PTR [rbx]
	movsxd	rcx, DWORD PTR [rax+4]
	add	rcx, rbx
	call	QWORD PTR __imp_?good@ios_base@std@@QEBA_NXZ
	mov	BYTE PTR [rdi+8], al
; Line 125
	mov	rax, rdi
	mov	rbx, QWORD PTR [rsp+72]
	add	rsp, 48					; 00000030H
	pop	rdi
	ret	0
??0sentry@?$basic_ostream@DU?$char_traits@D@std@@@std@@QEAA@AEAV12@@Z ENDP ; std::basic_ostream<char,std::char_traits<char> >::sentry::sentry
_TEXT	ENDS
;	COMDAT text$x
text$x	SEGMENT
$T1 = 32
this$ = 64
_Ostr$ = 72
?dtor$0@?0???0sentry@?$basic_ostream@DU?$char_traits@D@std@@@std@@QEAA@AEAV12@@Z@4HA PROC ; `std::basic_ostream<char,std::char_traits<char> >::sentry::sentry'::`1'::dtor$0
	mov	rcx, QWORD PTR this$[rdx]
	jmp	??1_Sentry_base@?$basic_ostream@DU?$char_traits@D@std@@@std@@QEAA@XZ ; std::basic_ostream<char,std::char_traits<char> >::_Sentry_base::~_Sentry_base
?dtor$0@?0???0sentry@?$basic_ostream@DU?$char_traits@D@std@@@std@@QEAA@AEAV12@@Z@4HA ENDP ; `std::basic_ostream<char,std::char_traits<char> >::sentry::sentry'::`1'::dtor$0
text$x	ENDS
; Function compile flags: /Ogtpy
;	COMDAT text$x
text$x	SEGMENT
$T1 = 32
this$ = 64
_Ostr$ = 72
?dtor$0@?0???0sentry@?$basic_ostream@DU?$char_traits@D@std@@@std@@QEAA@AEAV12@@Z@4HA PROC ; `std::basic_ostream<char,std::char_traits<char> >::sentry::sentry'::`1'::dtor$0
	mov	rcx, QWORD PTR this$[rdx]
	jmp	??1_Sentry_base@?$basic_ostream@DU?$char_traits@D@std@@@std@@QEAA@XZ ; std::basic_ostream<char,std::char_traits<char> >::_Sentry_base::~_Sentry_base
?dtor$0@?0???0sentry@?$basic_ostream@DU?$char_traits@D@std@@@std@@QEAA@AEAV12@@Z@4HA ENDP ; `std::basic_ostream<char,std::char_traits<char> >::sentry::sentry'::`1'::dtor$0
text$x	ENDS
; Function compile flags: /Ogtpy
;	COMDAT ??1_Sentry_base@?$basic_ostream@DU?$char_traits@D@std@@@std@@QEAA@XZ
_TEXT	SEGMENT
$T1 = 32
this$ = 64
??1_Sentry_base@?$basic_ostream@DU?$char_traits@D@std@@@std@@QEAA@XZ PROC ; std::basic_ostream<char,std::char_traits<char> >::_Sentry_base::~_Sentry_base, COMDAT
; File c:\program files (x86)\microsoft visual studio\2017\community\vc\tools\msvc\14.16.27023\include\ostream
; Line 105
$LN6:
	push	rbx
	sub	rsp, 48					; 00000030H
	mov	QWORD PTR $T1[rsp], -2
	mov	rbx, rcx
	lea	rcx, OFFSET FLAT:__375B2D08_ostream
	call	__CheckForDebuggerJustMyCode
	npad	1
; Line 106
	mov	rdx, QWORD PTR [rbx]
	mov	rax, QWORD PTR [rdx]
	movsxd	rcx, DWORD PTR [rax+4]
	add	rcx, rdx
	call	QWORD PTR __imp_?rdbuf@?$basic_ios@DU?$char_traits@D@std@@@std@@QEBAPEAV?$basic_streambuf@DU?$char_traits@D@std@@@2@XZ
	npad	1
	test	rax, rax
	je	SHORT $LN2@Sentry_bas
; Line 107
	mov	rdx, QWORD PTR [rbx]
	mov	rax, QWORD PTR [rdx]
	movsxd	rcx, DWORD PTR [rax+4]
	add	rcx, rdx
	call	QWORD PTR __imp_?rdbuf@?$basic_ios@DU?$char_traits@D@std@@@std@@QEBAPEAV?$basic_streambuf@DU?$char_traits@D@std@@@2@XZ
	npad	1
	mov	rdx, QWORD PTR [rax]
	mov	rcx, rax
	call	QWORD PTR [rdx+16]
	npad	1
$LN2@Sentry_bas:
; Line 108
	add	rsp, 48					; 00000030H
	pop	rbx
	ret	0
??1_Sentry_base@?$basic_ostream@DU?$char_traits@D@std@@@std@@QEAA@XZ ENDP ; std::basic_ostream<char,std::char_traits<char> >::_Sentry_base::~_Sentry_base
_TEXT	ENDS
; Function compile flags: /Ogtpy
;	COMDAT ??0_Sentry_base@?$basic_ostream@DU?$char_traits@D@std@@@std@@QEAA@AEAV12@@Z
_TEXT	SEGMENT
this$ = 48
_Ostr$ = 56
??0_Sentry_base@?$basic_ostream@DU?$char_traits@D@std@@@std@@QEAA@AEAV12@@Z PROC ; std::basic_ostream<char,std::char_traits<char> >::_Sentry_base::_Sentry_base, COMDAT
; File c:\program files (x86)\microsoft visual studio\2017\community\vc\tools\msvc\14.16.27023\include\ostream
; Line 99
$LN6:
	mov	QWORD PTR [rsp+8], rbx
	push	rdi
	sub	rsp, 32					; 00000020H
	mov	rdi, rcx
	mov	rbx, rdx
	lea	rcx, OFFSET FLAT:__375B2D08_ostream
	call	__CheckForDebuggerJustMyCode
	mov	QWORD PTR [rdi], rbx
	mov	rax, QWORD PTR [rbx]
	movsxd	rcx, DWORD PTR [rax+4]
	add	rcx, rbx
	call	QWORD PTR __imp_?rdbuf@?$basic_ios@DU?$char_traits@D@std@@@std@@QEBAPEAV?$basic_streambuf@DU?$char_traits@D@std@@@2@XZ
	test	rax, rax
	je	SHORT $LN4@Sentry_bas
; Line 101
	mov	rdx, QWORD PTR [rdi]
	mov	rax, QWORD PTR [rdx]
	movsxd	rcx, DWORD PTR [rax+4]
	add	rcx, rdx
	call	QWORD PTR __imp_?rdbuf@?$basic_ios@DU?$char_traits@D@std@@@std@@QEBAPEAV?$basic_streambuf@DU?$char_traits@D@std@@@2@XZ
	mov	rcx, rax
	mov	rdx, QWORD PTR [rax]
	call	QWORD PTR [rdx+8]
$LN4@Sentry_bas:
; Line 102
	mov	rbx, QWORD PTR [rsp+48]
	mov	rax, rdi
	add	rsp, 32					; 00000020H
	pop	rdi
	ret	0
??0_Sentry_base@?$basic_ostream@DU?$char_traits@D@std@@@std@@QEAA@AEAV12@@Z ENDP ; std::basic_ostream<char,std::char_traits<char> >::_Sentry_base::_Sentry_base
_TEXT	ENDS
; Function compile flags: /Ogtpy
;	COMDAT ??$endl@DU?$char_traits@D@std@@@std@@YAAEAV?$basic_ostream@DU?$char_traits@D@std@@@0@AEAV10@@Z
_TEXT	SEGMENT
_Ostr$ = 48
??$endl@DU?$char_traits@D@std@@@std@@YAAEAV?$basic_ostream@DU?$char_traits@D@std@@@0@AEAV10@@Z PROC ; std::endl<char,std::char_traits<char> >, COMDAT
; File c:\program files (x86)\microsoft visual studio\2017\community\vc\tools\msvc\14.16.27023\include\ostream
; Line 1019
$LN4:
	push	rbx
	sub	rsp, 32					; 00000020H
	mov	rbx, rcx
	lea	rcx, OFFSET FLAT:__375B2D08_ostream
	call	__CheckForDebuggerJustMyCode
	mov	rax, QWORD PTR [rbx]
	mov	dl, 10
	movsxd	rcx, DWORD PTR [rax+4]
	add	rcx, rbx
	call	QWORD PTR __imp_?widen@?$basic_ios@DU?$char_traits@D@std@@@std@@QEBADD@Z
	movzx	edx, al
	mov	rcx, rbx
	call	QWORD PTR __imp_?put@?$basic_ostream@DU?$char_traits@D@std@@@std@@QEAAAEAV12@D@Z
	mov	rcx, rbx
	call	QWORD PTR __imp_?flush@?$basic_ostream@DU?$char_traits@D@std@@@std@@QEAAAEAV12@XZ
	mov	rax, rbx
; Line 1023
	add	rsp, 32					; 00000020H
	pop	rbx
	ret	0
??$endl@DU?$char_traits@D@std@@@std@@YAAEAV?$basic_ostream@DU?$char_traits@D@std@@@0@AEAV10@@Z ENDP ; std::endl<char,std::char_traits<char> >
_TEXT	ENDS
; Function compile flags: /Ogtpy
;	COMDAT ??$?6U?$char_traits@D@std@@@std@@YAAEAV?$basic_ostream@DU?$char_traits@D@std@@@0@AEAV10@PEBD@Z
_TEXT	SEGMENT
$T1 = 32
_Ok$ = 40
_Ostr$ = 112
_Val$ = 120
_State$ = 128
??$?6U?$char_traits@D@std@@@std@@YAAEAV?$basic_ostream@DU?$char_traits@D@std@@@0@AEAV10@PEBD@Z PROC ; std::operator<<<std::char_traits<char> >, COMDAT
; File c:\program files (x86)\microsoft visual studio\2017\community\vc\tools\msvc\14.16.27023\include\ostream
; Line 790
$LN65:
	mov	QWORD PTR [rsp+8], rcx
	push	rsi
	push	rdi
	push	r12
	push	r14
	push	r15
	sub	rsp, 64					; 00000040H
	mov	QWORD PTR $T1[rsp], -2
	mov	QWORD PTR [rsp+120], rbx
	mov	r12, rdx
	mov	rbx, rcx
	lea	rcx, OFFSET FLAT:__375B2D08_ostream
	call	__CheckForDebuggerJustMyCode
; Line 793
	xor	esi, esi
	mov	DWORD PTR _State$[rsp], esi
; File c:\program files (x86)\microsoft visual studio\2017\community\vc\tools\msvc\14.16.27023\include\iosfwd
; Line 464
	mov	r14, -1
$LL59@operator:
	inc	r14
	cmp	BYTE PTR [r12+r14], sil
	jne	SHORT $LL59@operator
; File c:\program files (x86)\microsoft visual studio\2017\community\vc\tools\msvc\14.16.27023\include\ostream
; Line 795
	mov	rax, QWORD PTR [rbx]
	movsxd	rcx, DWORD PTR [rax+4]
	add	rcx, rbx
	call	QWORD PTR __imp_?width@ios_base@std@@QEBA_JXZ
	test	rax, rax
	jle	SHORT $LN17@operator
	mov	rax, QWORD PTR [rbx]
	movsxd	rcx, DWORD PTR [rax+4]
	add	rcx, rbx
	call	QWORD PTR __imp_?width@ios_base@std@@QEBA_JXZ
	cmp	rax, r14
	jle	SHORT $LN17@operator
	mov	rax, QWORD PTR [rbx]
	movsxd	rcx, DWORD PTR [rax+4]
	add	rcx, rbx
	call	QWORD PTR __imp_?width@ios_base@std@@QEBA_JXZ
	mov	rdi, rax
	sub	rdi, r14
	jmp	SHORT $LN18@operator
$LN17@operator:
	mov	rdi, rsi
$LN18@operator:
; Line 797
	mov	rdx, rbx
	lea	rcx, QWORD PTR _Ok$[rsp]
	call	??0sentry@?$basic_ostream@DU?$char_traits@D@std@@@std@@QEAA@AEAV12@@Z ; std::basic_ostream<char,std::char_traits<char> >::sentry::sentry
	npad	1
; Line 799
	cmp	BYTE PTR _Ok$[rsp+8], 0
	jne	SHORT $LN8@operator
; Line 800
	mov	esi, 4
; Line 801
	jmp	$LN22@operator
$LN8@operator:
; Line 804
	mov	rax, QWORD PTR [rbx]
	movsxd	rcx, DWORD PTR [rax+4]
	add	rcx, rbx
	call	QWORD PTR __imp_?flags@ios_base@std@@QEBAHXZ
	and	eax, 448				; 000001c0H
	cmp	eax, 64					; 00000040H
	je	SHORT $LN3@operator
$LL4@operator:
; Line 805
	test	rdi, rdi
	jle	SHORT $LN3@operator
; Line 806
	mov	rax, QWORD PTR [rbx]
	movsxd	rcx, DWORD PTR [rax+4]
	add	rcx, rbx
	call	QWORD PTR __imp_?fill@?$basic_ios@DU?$char_traits@D@std@@@std@@QEBADXZ
	movzx	r15d, al
	mov	rcx, QWORD PTR [rbx]
	movsxd	rcx, DWORD PTR [rcx+4]
	add	rcx, rbx
	call	QWORD PTR __imp_?rdbuf@?$basic_ios@DU?$char_traits@D@std@@@std@@QEBAPEAV?$basic_streambuf@DU?$char_traits@D@std@@@2@XZ
	movzx	edx, r15b
	mov	rcx, rax
	call	QWORD PTR __imp_?sputc@?$basic_streambuf@DU?$char_traits@D@std@@@std@@QEAAHD@Z
	cmp	eax, -1
	je	SHORT $LN62@operator
; Line 805
	dec	rdi
	jmp	SHORT $LL4@operator
$LN3@operator:
; Line 814
	mov	rax, QWORD PTR [rbx]
	movsxd	rcx, DWORD PTR [rax+4]
	add	rcx, rbx
	call	QWORD PTR __imp_?rdbuf@?$basic_ios@DU?$char_traits@D@std@@@std@@QEBAPEAV?$basic_streambuf@DU?$char_traits@D@std@@@2@XZ
	mov	r8, r14
	mov	rdx, r12
	mov	rcx, rax
	call	QWORD PTR __imp_?sputn@?$basic_streambuf@DU?$char_traits@D@std@@@std@@QEAA_JPEBD_J@Z
	cmp	rax, r14
	jne	SHORT $LN62@operator
	npad	4
$LL60@operator:
; Line 818
	test	rdi, rdi
	jle	SHORT $LN6@operator
; Line 819
	mov	rax, QWORD PTR [rbx]
	movsxd	rcx, DWORD PTR [rax+4]
	add	rcx, rbx
	call	QWORD PTR __imp_?fill@?$basic_ios@DU?$char_traits@D@std@@@std@@QEBADXZ
	movzx	r14d, al
	mov	rcx, QWORD PTR [rbx]
	movsxd	rcx, DWORD PTR [rcx+4]
	add	rcx, rbx
	call	QWORD PTR __imp_?rdbuf@?$basic_ios@DU?$char_traits@D@std@@@std@@QEBAPEAV?$basic_streambuf@DU?$char_traits@D@std@@@2@XZ
	movzx	edx, r14b
	mov	rcx, rax
	call	QWORD PTR __imp_?sputc@?$basic_streambuf@DU?$char_traits@D@std@@@std@@QEAAHD@Z
	cmp	eax, -1
	je	SHORT $LN62@operator
; Line 818
	dec	rdi
	jmp	SHORT $LL60@operator
$LN62@operator:
; Line 825
	mov	esi, 4
	mov	DWORD PTR _State$[rsp], esi
$LN6@operator:
	mov	rax, QWORD PTR [rbx]
	movsxd	rcx, DWORD PTR [rax+4]
	add	rcx, rbx
	xor	edx, edx
	call	QWORD PTR __imp_?width@ios_base@std@@QEAA_J_J@Z
	npad	1
	jmp	SHORT $LN22@operator
$LN23@operator:
	mov	rbx, QWORD PTR _Ostr$[rsp]
	mov	esi, DWORD PTR _State$[rsp]
$LN22@operator:
; Line 829
	mov	rax, QWORD PTR [rbx]
	movsxd	rcx, DWORD PTR [rax+4]
	add	rcx, rbx
	xor	r8d, r8d
	mov	edx, esi
	call	QWORD PTR __imp_?setstate@?$basic_ios@DU?$char_traits@D@std@@@std@@QEAAXH_N@Z
	npad	1
; Line 137
	call	?uncaught_exception@std@@YA_NXZ		; std::uncaught_exception
	test	al, al
	jne	SHORT $LN42@operator
; Line 139
	mov	rcx, QWORD PTR _Ok$[rsp]
	call	QWORD PTR __imp_?_Osfx@?$basic_ostream@DU?$char_traits@D@std@@@std@@QEAAXXZ
	npad	1
$LN42@operator:
; Line 106
	mov	rdx, QWORD PTR _Ok$[rsp]
	mov	rax, QWORD PTR [rdx]
	movsxd	rcx, DWORD PTR [rax+4]
	add	rcx, rdx
	call	QWORD PTR __imp_?rdbuf@?$basic_ios@DU?$char_traits@D@std@@@std@@QEBAPEAV?$basic_streambuf@DU?$char_traits@D@std@@@2@XZ
	test	rax, rax
	je	SHORT $LN46@operator
; Line 107
	mov	rdx, QWORD PTR _Ok$[rsp]
	mov	rax, QWORD PTR [rdx]
	movsxd	rcx, DWORD PTR [rax+4]
	add	rcx, rdx
	call	QWORD PTR __imp_?rdbuf@?$basic_ios@DU?$char_traits@D@std@@@std@@QEBAPEAV?$basic_streambuf@DU?$char_traits@D@std@@@2@XZ
	mov	rdx, QWORD PTR [rax]
	mov	rcx, rax
	call	QWORD PTR [rdx+16]
	npad	1
$LN46@operator:
; Line 830
	mov	rax, rbx
; Line 831
	mov	rbx, QWORD PTR [rsp+120]
	add	rsp, 64					; 00000040H
	pop	r15
	pop	r14
	pop	r12
	pop	rdi
	pop	rsi
	ret	0
??$?6U?$char_traits@D@std@@@std@@YAAEAV?$basic_ostream@DU?$char_traits@D@std@@@0@AEAV10@PEBD@Z ENDP ; std::operator<<<std::char_traits<char> >
_TEXT	ENDS
;	COMDAT text$x
text$x	SEGMENT
$T1 = 32
_Ok$ = 40
_Ostr$ = 112
_Val$ = 120
_State$ = 128
?dtor$0@?0???$?6U?$char_traits@D@std@@@std@@YAAEAV?$basic_ostream@DU?$char_traits@D@std@@@0@AEAV10@PEBD@Z@4HA PROC ; `std::operator<<<std::char_traits<char> >'::`1'::dtor$0
	lea	rcx, QWORD PTR _Ok$[rdx]
	jmp	??1sentry@?$basic_ostream@DU?$char_traits@D@std@@@std@@QEAA@XZ ; std::basic_ostream<char,std::char_traits<char> >::sentry::~sentry
?dtor$0@?0???$?6U?$char_traits@D@std@@@std@@YAAEAV?$basic_ostream@DU?$char_traits@D@std@@@0@AEAV10@PEBD@Z@4HA ENDP ; `std::operator<<<std::char_traits<char> >'::`1'::dtor$0
text$x	ENDS
;	COMDAT text$x
text$x	SEGMENT
$T1 = 32
_Ok$ = 40
_Ostr$ = 112
_Val$ = 120
_State$ = 128
?catch$8@?0???$?6U?$char_traits@D@std@@@std@@YAAEAV?$basic_ostream@DU?$char_traits@D@std@@@0@AEAV10@PEBD@Z@4HA PROC ; `std::operator<<<std::char_traits<char> >'::`1'::catch$8
; Line 826
	mov	QWORD PTR [rsp+16], rdx
	push	rbp
	sub	rsp, 32					; 00000020H
	mov	rbp, rdx
__catch$??$?6U?$char_traits@D@std@@@std@@YAAEAV?$basic_ostream@DU?$char_traits@D@std@@@0@AEAV10@PEBD@Z$0:
	mov	rdx, QWORD PTR _Ostr$[rbp]
	mov	rax, QWORD PTR [rdx]
	movsxd	rcx, DWORD PTR [rax+4]
	add	rcx, rdx
	mov	r8b, 1
	mov	edx, 4
	call	QWORD PTR __imp_?setstate@?$basic_ios@DU?$char_traits@D@std@@@std@@QEAAXH_N@Z
	npad	1
	lea	rax, $LN23@catch$8
	add	rsp, 32					; 00000020H
	pop	rbp
	ret	0
	int	3
?catch$8@?0???$?6U?$char_traits@D@std@@@std@@YAAEAV?$basic_ostream@DU?$char_traits@D@std@@@0@AEAV10@PEBD@Z@4HA ENDP ; `std::operator<<<std::char_traits<char> >'::`1'::catch$8
text$x	ENDS
; Function compile flags: /Ogtpy
;	COMDAT text$x
text$x	SEGMENT
$T1 = 32
_Ok$ = 40
_Ostr$ = 112
_Val$ = 120
_State$ = 128
?dtor$0@?0???$?6U?$char_traits@D@std@@@std@@YAAEAV?$basic_ostream@DU?$char_traits@D@std@@@0@AEAV10@PEBD@Z@4HA PROC ; `std::operator<<<std::char_traits<char> >'::`1'::dtor$0
	lea	rcx, QWORD PTR _Ok$[rdx]
	jmp	??1sentry@?$basic_ostream@DU?$char_traits@D@std@@@std@@QEAA@XZ ; std::basic_ostream<char,std::char_traits<char> >::sentry::~sentry
?dtor$0@?0???$?6U?$char_traits@D@std@@@std@@YAAEAV?$basic_ostream@DU?$char_traits@D@std@@@0@AEAV10@PEBD@Z@4HA ENDP ; `std::operator<<<std::char_traits<char> >'::`1'::dtor$0
text$x	ENDS
; Function compile flags: /Ogtpy
;	COMDAT text$x
text$x	SEGMENT
$T1 = 32
_Ok$ = 40
_Ostr$ = 112
_Val$ = 120
_State$ = 128
?catch$8@?0???$?6U?$char_traits@D@std@@@std@@YAAEAV?$basic_ostream@DU?$char_traits@D@std@@@0@AEAV10@PEBD@Z@4HA PROC ; `std::operator<<<std::char_traits<char> >'::`1'::catch$8
; Line 826
	mov	QWORD PTR [rsp+16], rdx
	push	rbp
	sub	rsp, 32					; 00000020H
	mov	rbp, rdx
__catch$??$?6U?$char_traits@D@std@@@std@@YAAEAV?$basic_ostream@DU?$char_traits@D@std@@@0@AEAV10@PEBD@Z$0:
	mov	rdx, QWORD PTR _Ostr$[rbp]
	mov	rax, QWORD PTR [rdx]
	movsxd	rcx, DWORD PTR [rax+4]
	add	rcx, rdx
	mov	r8b, 1
	mov	edx, 4
	call	QWORD PTR __imp_?setstate@?$basic_ios@DU?$char_traits@D@std@@@std@@QEAAXH_N@Z
	npad	1
	lea	rax, $LN23@catch$8
	add	rsp, 32					; 00000020H
	pop	rbp
	ret	0
	int	3
?catch$8@?0???$?6U?$char_traits@D@std@@@std@@YAAEAV?$basic_ostream@DU?$char_traits@D@std@@@0@AEAV10@PEBD@Z@4HA ENDP ; `std::operator<<<std::char_traits<char> >'::`1'::catch$8
text$x	ENDS
; Function compile flags: /Ogtpy
;	COMDAT ?log@@YAXPEBD@Z
_TEXT	SEGMENT
message$ = 48
?log@@YAXPEBD@Z PROC					; log, COMDAT
; File c:\users\sarala.kumarage\desktop\c++ practise\cpp_linker\cpp_linker\log.cpp
; Line 4
$LN4:
	push	rbx
	sub	rsp, 32					; 00000020H
	mov	rbx, rcx
	lea	rcx, OFFSET FLAT:__4E69A109_log@cpp
	call	__CheckForDebuggerJustMyCode
	mov	rcx, QWORD PTR __imp_?cout@std@@3V?$basic_ostream@DU?$char_traits@D@std@@@1@A
	mov	rdx, rbx
	call	??$?6U?$char_traits@D@std@@@std@@YAAEAV?$basic_ostream@DU?$char_traits@D@std@@@0@AEAV10@PEBD@Z ; std::operator<<<std::char_traits<char> >
	mov	rcx, rax
	lea	rdx, OFFSET FLAT:??$endl@DU?$char_traits@D@std@@@std@@YAAEAV?$basic_ostream@DU?$char_traits@D@std@@@0@AEAV10@@Z ; std::endl<char,std::char_traits<char> >
; Line 7
	add	rsp, 32					; 00000020H
	pop	rbx
	rex_jmp	QWORD PTR __imp_??6?$basic_ostream@DU?$char_traits@D@std@@@std@@QEAAAEAV01@P6AAEAV01@AEAV01@@Z@Z
?log@@YAXPEBD@Z ENDP					; log
_TEXT	ENDS
; Function compile flags: /Ogtpy
;	COMDAT ?eof@?$char_traits@D@std@@SAHXZ
_TEXT	SEGMENT
$T1 = 32
?eof@?$char_traits@D@std@@SAHXZ PROC			; std::char_traits<char>::eof, COMDAT
; File c:\program files (x86)\microsoft visual studio\2017\community\vc\tools\msvc\14.16.27023\include\iosfwd
; Line 540
$LN5:
	sub	rsp, 56					; 00000038H
	mov	QWORD PTR $T1[rsp], -2
	lea	rcx, OFFSET FLAT:__7E39D651_iosfwd
	call	__CheckForDebuggerJustMyCode
	npad	1
; Line 541
	mov	eax, -1
; Line 542
	add	rsp, 56					; 00000038H
	ret	0
?eof@?$char_traits@D@std@@SAHXZ ENDP			; std::char_traits<char>::eof
_TEXT	ENDS
; Function compile flags: /Ogtpy
;	COMDAT ?eq_int_type@?$char_traits@D@std@@SA_NAEBH0@Z
_TEXT	SEGMENT
$T1 = 32
_Left$ = 64
_Right$ = 72
?eq_int_type@?$char_traits@D@std@@SA_NAEBH0@Z PROC	; std::char_traits<char>::eq_int_type, COMDAT
; File c:\program files (x86)\microsoft visual studio\2017\community\vc\tools\msvc\14.16.27023\include\iosfwd
; Line 530
$LN5:
	push	rdi
	sub	rsp, 48					; 00000030H
	mov	QWORD PTR $T1[rsp], -2
	mov	QWORD PTR [rsp+64], rbx
	mov	rbx, rdx
	mov	rdi, rcx
	lea	rcx, OFFSET FLAT:__7E39D651_iosfwd
	call	__CheckForDebuggerJustMyCode
	npad	1
; Line 531
	mov	eax, DWORD PTR [rbx]
	cmp	DWORD PTR [rdi], eax
	sete	al
; Line 532
	mov	rbx, QWORD PTR [rsp+64]
	add	rsp, 48					; 00000030H
	pop	rdi
	ret	0
?eq_int_type@?$char_traits@D@std@@SA_NAEBH0@Z ENDP	; std::char_traits<char>::eq_int_type
_TEXT	ENDS
; Function compile flags: /Ogtpy
;	COMDAT ?length@?$char_traits@D@std@@SA_KQEBD@Z
_TEXT	SEGMENT
$T1 = 32
_First$ = 64
?length@?$char_traits@D@std@@SA_KQEBD@Z PROC		; std::char_traits<char>::length, COMDAT
; File c:\program files (x86)\microsoft visual studio\2017\community\vc\tools\msvc\14.16.27023\include\iosfwd
; Line 460
$LN6:
	push	rbx
	sub	rsp, 48					; 00000030H
	mov	QWORD PTR $T1[rsp], -2
	mov	rbx, rcx
	lea	rcx, OFFSET FLAT:__7E39D651_iosfwd
	call	__CheckForDebuggerJustMyCode
	npad	1
; Line 464
	mov	rax, -1
$LL3@length:
	inc	rax
	cmp	BYTE PTR [rbx+rax], 0
	jne	SHORT $LL3@length
; Line 466
	add	rsp, 48					; 00000030H
	pop	rbx
	ret	0
?length@?$char_traits@D@std@@SA_KQEBD@Z ENDP		; std::char_traits<char>::length
_TEXT	ENDS
; Function compile flags: /Ogtpy
;	COMDAT ?__empty_global_delete@@YAXPEAX_K@Z
_TEXT	SEGMENT
__formal$ = 8
__formal$ = 16
?__empty_global_delete@@YAXPEAX_K@Z PROC		; __empty_global_delete, COMDAT
; File c:\users\sarala.kumarage\desktop\c++ practise\cpp_linker\cpp_linker\log.cpp
	lea	rcx, OFFSET FLAT:__4E69A109_log@cpp
	jmp	__CheckForDebuggerJustMyCode
?__empty_global_delete@@YAXPEAX_K@Z ENDP		; __empty_global_delete
_TEXT	ENDS
; Function compile flags: /Ogtpy
;	COMDAT ?__empty_global_delete@@YAXPEAX@Z
_TEXT	SEGMENT
__formal$ = 8
?__empty_global_delete@@YAXPEAX@Z PROC			; __empty_global_delete, COMDAT
; File c:\users\sarala.kumarage\desktop\c++ practise\cpp_linker\cpp_linker\log.cpp
	lea	rcx, OFFSET FLAT:__4E69A109_log@cpp
	jmp	__CheckForDebuggerJustMyCode
?__empty_global_delete@@YAXPEAX@Z ENDP			; __empty_global_delete
_TEXT	ENDS
END
